; Function Attrs: mustprogress nofree norecurse nosync nounwind willreturn memory(argmem: readwrite) uwtable
define internal noundef zeroext i1 @"_ZNSt17_Function_handlerIFvN3gmx8ArrayRefIKfEENS0_35ReferenceTemperatureChangeAlgorithmEEZNS0_32ModularSimulatorAlgorithmBuilderC1ENS0_6compat8not_nullIPNS0_19LegacySimulatorDataEEESt10unique_ptrINS0_24ReadCheckpointDataHolderESt14default_deleteISD_EEE3$_0E10_M_managerERSt9_Any_dataRKSJ_St18_Manager_operation"(ptr nocapture noundef nonnull writeonly align 8 dereferenceable(16) %0, ptr noundef nonnull align 8 dereferenceable(16) %1, i32 noundef %2) #15 align 2 personality ptr @__gxx_personality_v0 {
  switch i32 %2, label %"_ZNSt14_Function_base13_Base_managerIZN3gmx32ModularSimulatorAlgorithmBuilderC1ENS1_6compat8not_nullIPNS1_19LegacySimulatorDataEEESt10unique_ptrINS1_24ReadCheckpointDataHolderESt14default_deleteIS9_EEE3$_0E10_M_managerERSt9_Any_dataRKSF_St18_Manager_operation.exit" [
    i32 0, label %4
    i32 1, label %5
    i32 2, label %6
  ]

4:                                                ; preds = %3
  store ptr @"_ZTIZN3gmx32ModularSimulatorAlgorithmBuilderC1ENS_6compat8not_nullIPNS_19LegacySimulatorDataEEESt10unique_ptrINS_24ReadCheckpointDataHolderESt14default_deleteIS7_EEE3$_0", ptr %0, align 8
  br label %"_ZNSt14_Function_base13_Base_managerIZN3gmx32ModularSimulatorAlgorithmBuilderC1ENS1_6compat8not_nullIPNS1_19LegacySimulatorDataEEESt10unique_ptrINS1_24ReadCheckpointDataHolderESt14default_deleteIS9_EEE3$_0E10_M_managerERSt9_Any_dataRKSF_St18_Manager_operation.exit"

5:                                                ; preds = %3
  store ptr %1, ptr %0, align 8
  br label %"_ZNSt14_Function_base13_Base_managerIZN3gmx32ModularSimulatorAlgorithmBuilderC1ENS1_6compat8not_nullIPNS1_19LegacySimulatorDataEEESt10unique_ptrINS1_24ReadCheckpointDataHolderESt14default_deleteIS9_EEE3$_0E10_M_managerERSt9_Any_dataRKSF_St18_Manager_operation.exit"

6:                                                ; preds = %3
  %.val.i = load i64, ptr %1, align 8
  store i64 %.val.i, ptr %0, align 8
  br label %"_ZNSt14_Function_base13_Base_managerIZN3gmx32ModularSimulatorAlgorithmBuilderC1ENS1_6compat8not_nullIPNS1_19LegacySimulatorDataEEESt10unique_ptrINS1_24ReadCheckpointDataHolderESt14default_deleteIS9_EEE3$_0E10_M_managerERSt9_Any_dataRKSF_St18_Manager_operation.exit"

"_ZNSt14_Function_base13_Base_managerIZN3gmx32ModularSimulatorAlgorithmBuilderC1ENS1_6compat8not_nullIPNS1_19LegacySimulatorDataEEESt10unique_ptrINS1_24ReadCheckpointDataHolderESt14default_deleteIS9_EEE3$_0E10_M_managerERSt9_Any_dataRKSF_St18_Manager_operation.exit": ; preds = %3, %6, %5, %4
  ret i1 false
}